; Function Attrs: mustprogress nounwind uwtable
define hidden void @dump_vtable(ptr nocapture noundef readnone %0) local_unnamed_addr #1 {
  %2 = tail call align 8 ptr @llvm.threadlocal.address.p0(ptr align 8 @_ZN6Thread12_thr_currentE)
  %3 = load ptr, ptr %2, align 8
  %4 = getelementptr inbounds i8, ptr %3, i64 800
  %5 = load ptr, ptr %4, align 8
  %6 = getelementptr inbounds i8, ptr %5, i64 24
  %7 = load ptr, ptr %6, align 8
  %8 = getelementptr inbounds i8, ptr %5, i64 32
  %9 = load ptr, ptr %8, align 8
  %10 = getelementptr inbounds i8, ptr %5, i64 40
  %11 = load ptr, ptr %10, align 8
  %12 = getelementptr inbounds i8, ptr %5, i64 8
  %13 = load i64, ptr %12, align 8
  %14 = load i32, ptr @_ZN16DebuggingContext8_enabledE, align 4
  %15 = add nsw i32 %14, 1
  store i32 %15, ptr @_ZN16DebuggingContext8_enabledE, align 4
  %16 = load i32, ptr @_ZN7Command5levelE, align 4
  %17 = add nsw i32 %16, 1
  store i32 %17, ptr @_ZN7Command5levelE, align 4
  %18 = icmp sgt i32 %16, 0
  br i1 %18, label %_ZN7CommandC2EPKc.exit, label %19

19:                                               ; preds = %1
  %20 = load ptr, ptr @tty, align 8
  tail call void @_ZN12outputStream2crEv(ptr noundef nonnull align 8 dereferenceable(56) %20) #16
  %21 = load ptr, ptr @tty, align 8
  tail call void (ptr, ptr, ...) @_ZN12outputStream8print_crEPKcz(ptr noundef nonnull align 8 dereferenceable(56) %21, ptr noundef nonnull @.str.82, ptr noundef nonnull @.str.18) #16
  br label %_ZN7CommandC2EPKc.exit

_ZN7CommandC2EPKc.exit:                           ; preds = %1, %19
  %22 = load ptr, ptr @tty, align 8
  %23 = load ptr, ptr %22, align 8
  %24 = load ptr, ptr %23, align 8
  tail call void %24(ptr noundef nonnull align 8 dereferenceable(56) %22) #16
  %25 = load i32, ptr @_ZN7Command5levelE, align 4
  %26 = add nsw i32 %25, -1
  store i32 %26, ptr @_ZN7Command5levelE, align 4
  %27 = load i32, ptr @_ZN16DebuggingContext8_enabledE, align 4
  %28 = icmp sgt i32 %27, 0
  br i1 %28, label %_ZN16DebuggingContextD2Ev.exit.i, label %29

29:                                               ; preds = %_ZN7CommandC2EPKc.exit
  %30 = load ptr, ptr @g_assert_poison, align 8
  store i8 88, ptr %30, align 1
  tail call void (i32, ptr, i32, ptr, ...) @_Z12report_fatal11VMErrorTypePKciS1_z(i32 noundef -536870912, ptr noundef nonnull @.str, i32 noundef 91, ptr noundef nonnull @.str.4) #15
  unreachable

_ZN16DebuggingContextD2Ev.exit.i:                 ; preds = %_ZN7CommandC2EPKc.exit
  %31 = add nsw i32 %27, -1
  store i32 %31, ptr @_ZN16DebuggingContext8_enabledE, align 4
  %32 = load ptr, ptr %7, align 8
  %.not.i.i.i.i.i = icmp eq ptr %32, null
  br i1 %.not.i.i.i.i.i, label %34, label %33

33:                                               ; preds = %_ZN16DebuggingContextD2Ev.exit.i
  tail call void @_ZN5Arena17set_size_in_bytesEm(ptr noundef nonnull align 8 dereferenceable(48) %5, i64 noundef %13) #16
  tail call void @_ZN5Chunk9next_chopEPS_(ptr noundef nonnull %7) #16
  br label %34

34:                                               ; preds = %33, %_ZN16DebuggingContextD2Ev.exit.i
  %35 = load ptr, ptr %8, align 8
  %.not8.i.i.i.i.i = icmp eq ptr %35, %9
  br i1 %.not8.i.i.i.i.i, label %_ZN7CommandD2Ev.exit, label %36

36:                                               ; preds = %34
  store ptr %7, ptr %6, align 8
  store ptr %9, ptr %8, align 8
  store ptr %11, ptr %10, align 8
  br label %_ZN7CommandD2Ev.exit

_ZN7CommandD2Ev.exit:                             ; preds = %34, %36
  ret void
}